; Function Attrs: mustprogress nofree nounwind memory(readwrite, inaccessiblemem: none) uwtable
define noundef range(i32 0, 2) i32 @_ZN6LibRaw16setMakeFromIndexEj(ptr noundef nonnull align 8 dereferenceable(767680) %0, i32 noundef %1) local_unnamed_addr #0 align 2 {
  %3 = add i32 %1, -79
  %or.cond = icmp ult i32 %3, -78
  br i1 %or.cond, label %14, label %.preheader

4:                                                ; preds = %.preheader
  %indvars.iv.next = add nuw nsw i64 %indvars.iv, 1
  %exitcond.not = icmp eq i64 %indvars.iv.next, 78
  br i1 %exitcond.not, label %.loopexit, label %.preheader, !llvm.loop !6

.preheader:                                       ; preds = %2, %4
  %indvars.iv = phi i64 [ %indvars.iv.next, %4 ], [ 0, %2 ]
  %5 = getelementptr inbounds nuw [78 x %struct.anon], ptr @_ZL9CorpTable, i64 0, i64 %indvars.iv
  %6 = load i32, ptr %5, align 16, !tbaa !8
  %7 = icmp eq i32 %6, %1
  br i1 %7, label %8, label %4

8:                                                ; preds = %.preheader
  %9 = getelementptr inbounds nuw i8, ptr %0, i64 396
  %10 = getelementptr inbounds nuw i8, ptr %5, i64 8
  %11 = load ptr, ptr %10, align 8, !tbaa !15
  %12 = tail call ptr @strcpy(ptr noundef nonnull dereferenceable(1) %9, ptr noundef nonnull dereferenceable(1) %11) #17
  %13 = getelementptr inbounds nuw i8, ptr %0, i64 524
  store i32 %1, ptr %13, align 4, !tbaa !16
  br label %.loopexit

.loopexit:                                        ; preds = %4, %8
  %spec.select = zext i1 %7 to i32
  br label %14

14:                                               ; preds = %.loopexit, %2
  %.012 = phi i32 [ 0, %2 ], [ %spec.select, %.loopexit ]
  ret i32 %.012
}